; Function Attrs: mustprogress nofree norecurse nosync nounwind memory(argmem: readwrite) uwtable
define internal fastcc void @_ZN17double_conversionL12FillDigits64EmNS_6VectorIcEEPi(i64 noundef %0, ptr captures(none) %1, ptr noundef captures(none) %2) unnamed_addr #0 {
  %4 = urem i64 %0, 10000000
  %5 = trunc nuw nsw i64 %4 to i32
  %6 = udiv i64 %0, 10000000
  %7 = urem i64 %6, 10000000
  %8 = trunc nuw nsw i64 %7 to i32
  %.not = icmp ult i64 %0, 100000000000000
  br i1 %.not, label %52, label %9

9:                                                ; preds = %3
  %10 = udiv i64 %0, 100000000000000
  %11 = trunc nuw nsw i64 %10 to i32
  br label %.lr.ph.i

.lr.ph.i:                                         ; preds = %9, %.lr.ph.i
  %.029.i = phi i32 [ %13, %.lr.ph.i ], [ %11, %9 ]
  %.02228.i = phi i32 [ %20, %.lr.ph.i ], [ 0, %9 ]
  %12 = urem i32 %.029.i, 10
  %13 = udiv i32 %.029.i, 10
  %14 = trunc nuw nsw i32 %12 to i8
  %15 = or disjoint i8 %14, 48
  %16 = load i32, ptr %2, align 4, !tbaa !3
  %17 = add nsw i32 %16, %.02228.i
  %18 = sext i32 %17 to i64
  %19 = getelementptr inbounds i8, ptr %1, i64 %18
  store i8 %15, ptr %19, align 1, !tbaa !7
  %20 = add nuw nsw i32 %.02228.i, 1
  %.not.i = icmp samesign ult i32 %.029.i, 10
  br i1 %.not.i, label %._crit_edge.i, label %.lr.ph.i, !llvm.loop !8

._crit_edge.i:                                    ; preds = %.lr.ph.i
  %21 = load i32, ptr %2, align 4, !tbaa !3
  %.02030.i = add i32 %21, %.02228.i
  %22 = icmp slt i32 %21, %.02030.i
  br i1 %22, label %.lr.ph34.preheader.i, label %_ZN17double_conversionL12FillDigits32EjNS_6VectorIcEEPi.exit

.lr.ph34.preheader.i:                             ; preds = %._crit_edge.i
  %23 = sext i32 %.02030.i to i64
  %24 = sext i32 %21 to i64
  br label %.lr.ph34.i

.lr.ph34.i:                                       ; preds = %.lr.ph34.i, %.lr.ph34.preheader.i
  %indvars.iv36.i = phi i64 [ %24, %.lr.ph34.preheader.i ], [ %indvars.iv.next37.i, %.lr.ph34.i ]
  %indvars.iv.i = phi i64 [ %23, %.lr.ph34.preheader.i ], [ %indvars.iv.next.i, %.lr.ph34.i ]
  %25 = getelementptr inbounds i8, ptr %1, i64 %indvars.iv36.i
  %26 = load i8, ptr %25, align 1, !tbaa !7
  %27 = getelementptr inbounds i8, ptr %1, i64 %indvars.iv.i
  %28 = load i8, ptr %27, align 1, !tbaa !7
  store i8 %28, ptr %25, align 1, !tbaa !7
  store i8 %26, ptr %27, align 1, !tbaa !7
  %indvars.iv.next37.i = add nsw i64 %indvars.iv36.i, 1
  %indvars.iv.next.i = add nsw i64 %indvars.iv.i, -1
  %29 = icmp slt i64 %indvars.iv.next37.i, %indvars.iv.next.i
  br i1 %29, label %.lr.ph34.i, label %._crit_edge35.loopexit.i, !llvm.loop !10

._crit_edge35.loopexit.i:                         ; preds = %.lr.ph34.i
  %.pre.i = load i32, ptr %2, align 4, !tbaa !3
  br label %_ZN17double_conversionL12FillDigits32EjNS_6VectorIcEEPi.exit

_ZN17double_conversionL12FillDigits32EjNS_6VectorIcEEPi.exit: ; preds = %._crit_edge.i, %._crit_edge35.loopexit.i
  %.pre.i.pn = phi i32 [ %.pre.i, %._crit_edge35.loopexit.i ], [ %21, %._crit_edge.i ]
  %.pre-phi.i = add nsw i32 %.pre.i.pn, %20
  store i32 %.pre-phi.i, ptr %2, align 4, !tbaa !3
  br label %30

30:                                               ; preds = %30, %_ZN17double_conversionL12FillDigits32EjNS_6VectorIcEEPi.exit
  %.0.in10.i = phi i32 [ 7, %_ZN17double_conversionL12FillDigits32EjNS_6VectorIcEEPi.exit ], [ %.0.i, %30 ]
  %.089.i = phi i32 [ %8, %_ZN17double_conversionL12FillDigits32EjNS_6VectorIcEEPi.exit ], [ %38, %30 ]
  %.0.i = add nsw i32 %.0.in10.i, -1
  %31 = urem i32 %.089.i, 10
  %32 = trunc nuw nsw i32 %31 to i8
  %33 = or disjoint i8 %32, 48
  %34 = load i32, ptr %2, align 4, !tbaa !3
  %35 = add nsw i32 %34, %.0.i
  %36 = sext i32 %35 to i64
  %37 = getelementptr inbounds i8, ptr %1, i64 %36
  store i8 %33, ptr %37, align 1, !tbaa !7
  %38 = udiv i32 %.089.i, 10
  %39 = icmp samesign ugt i32 %.0.in10.i, 1
  br i1 %39, label %30, label %_ZN17double_conversionL23FillDigits32FixedLengthEjiNS_6VectorIcEEPi.exit, !llvm.loop !11

_ZN17double_conversionL23FillDigits32FixedLengthEjiNS_6VectorIcEEPi.exit: ; preds = %30
  %40 = load i32, ptr %2, align 4, !tbaa !3
  %41 = add nsw i32 %40, 7
  store i32 %41, ptr %2, align 4, !tbaa !3
  br label %42

42:                                               ; preds = %42, %_ZN17double_conversionL23FillDigits32FixedLengthEjiNS_6VectorIcEEPi.exit
  %.0.in10.i45 = phi i32 [ 7, %_ZN17double_conversionL23FillDigits32FixedLengthEjiNS_6VectorIcEEPi.exit ], [ %.0.i47, %42 ]
  %.089.i46 = phi i32 [ %5, %_ZN17double_conversionL23FillDigits32FixedLengthEjiNS_6VectorIcEEPi.exit ], [ %50, %42 ]
  %.0.i47 = add nsw i32 %.0.in10.i45, -1
  %43 = urem i32 %.089.i46, 10
  %44 = trunc nuw nsw i32 %43 to i8
  %45 = or disjoint i8 %44, 48
  %46 = load i32, ptr %2, align 4, !tbaa !3
  %47 = add nsw i32 %46, %.0.i47
  %48 = sext i32 %47 to i64
  %49 = getelementptr inbounds i8, ptr %1, i64 %48
  store i8 %45, ptr %49, align 1, !tbaa !7
  %50 = udiv i32 %.089.i46, 10
  %51 = icmp samesign ugt i32 %.0.in10.i45, 1
  br i1 %51, label %42, label %_ZN17double_conversionL12FillDigits32EjNS_6VectorIcEEPi.exit90.sink.split, !llvm.loop !11

52:                                               ; preds = %3
  %.not44 = icmp eq i64 %7, 0
  br i1 %.not44, label %81, label %.lr.ph.i50

.lr.ph.i50:                                       ; preds = %52, %.lr.ph.i50
  %.029.i51 = phi i32 [ %54, %.lr.ph.i50 ], [ %8, %52 ]
  %.02228.i52 = phi i32 [ %61, %.lr.ph.i50 ], [ 0, %52 ]
  %53 = urem i32 %.029.i51, 10
  %54 = udiv i32 %.029.i51, 10
  %55 = trunc nuw nsw i32 %53 to i8
  %56 = or disjoint i8 %55, 48
  %57 = load i32, ptr %2, align 4, !tbaa !3
  %58 = add nsw i32 %57, %.02228.i52
  %59 = sext i32 %58 to i64
  %60 = getelementptr inbounds i8, ptr %1, i64 %59
  store i8 %56, ptr %60, align 1, !tbaa !7
  %61 = add nuw nsw i32 %.02228.i52, 1
  %.not.i53 = icmp samesign ult i32 %.029.i51, 10
  br i1 %.not.i53, label %._crit_edge.i54, label %.lr.ph.i50, !llvm.loop !8

._crit_edge.i54:                                  ; preds = %.lr.ph.i50
  %62 = load i32, ptr %2, align 4, !tbaa !3
  %.02030.i56 = add i32 %62, %.02228.i52
  %63 = icmp slt i32 %62, %.02030.i56
  br i1 %63, label %.lr.ph34.preheader.i58, label %_ZN17double_conversionL12FillDigits32EjNS_6VectorIcEEPi.exit67

.lr.ph34.preheader.i58:                           ; preds = %._crit_edge.i54
  %64 = sext i32 %.02030.i56 to i64
  %65 = sext i32 %62 to i64
  br label %.lr.ph34.i59

.lr.ph34.i59:                                     ; preds = %.lr.ph34.i59, %.lr.ph34.preheader.i58
  %indvars.iv36.i60 = phi i64 [ %65, %.lr.ph34.preheader.i58 ], [ %indvars.iv.next37.i62, %.lr.ph34.i59 ]
  %indvars.iv.i61 = phi i64 [ %64, %.lr.ph34.preheader.i58 ], [ %indvars.iv.next.i63, %.lr.ph34.i59 ]
  %66 = getelementptr inbounds i8, ptr %1, i64 %indvars.iv36.i60
  %67 = load i8, ptr %66, align 1, !tbaa !7
  %68 = getelementptr inbounds i8, ptr %1, i64 %indvars.iv.i61
  %69 = load i8, ptr %68, align 1, !tbaa !7
  store i8 %69, ptr %66, align 1, !tbaa !7
  store i8 %67, ptr %68, align 1, !tbaa !7
  %indvars.iv.next37.i62 = add nsw i64 %indvars.iv36.i60, 1
  %indvars.iv.next.i63 = add nsw i64 %indvars.iv.i61, -1
  %70 = icmp slt i64 %indvars.iv.next37.i62, %indvars.iv.next.i63
  br i1 %70, label %.lr.ph34.i59, label %._crit_edge35.loopexit.i64, !llvm.loop !10

._crit_edge35.loopexit.i64:                       ; preds = %.lr.ph34.i59
  %.pre.i65 = load i32, ptr %2, align 4, !tbaa !3
  br label %_ZN17double_conversionL12FillDigits32EjNS_6VectorIcEEPi.exit67

_ZN17double_conversionL12FillDigits32EjNS_6VectorIcEEPi.exit67: ; preds = %._crit_edge.i54, %._crit_edge35.loopexit.i64
  %.pre.i65.pn = phi i32 [ %.pre.i65, %._crit_edge35.loopexit.i64 ], [ %62, %._crit_edge.i54 ]
  %.pre-phi.i57 = add nsw i32 %.pre.i65.pn, %61
  store i32 %.pre-phi.i57, ptr %2, align 4, !tbaa !3
  br label %71

71:                                               ; preds = %71, %_ZN17double_conversionL12FillDigits32EjNS_6VectorIcEEPi.exit67
  %.0.in10.i68 = phi i32 [ 7, %_ZN17double_conversionL12FillDigits32EjNS_6VectorIcEEPi.exit67 ], [ %.0.i70, %71 ]
  %.089.i69 = phi i32 [ %5, %_ZN17double_conversionL12FillDigits32EjNS_6VectorIcEEPi.exit67 ], [ %79, %71 ]
  %.0.i70 = add nsw i32 %.0.in10.i68, -1
  %72 = urem i32 %.089.i69, 10
  %73 = trunc nuw nsw i32 %72 to i8
  %74 = or disjoint i8 %73, 48
  %75 = load i32, ptr %2, align 4, !tbaa !3
  %76 = add nsw i32 %75, %.0.i70
  %77 = sext i32 %76 to i64
  %78 = getelementptr inbounds i8, ptr %1, i64 %77
  store i8 %74, ptr %78, align 1, !tbaa !7
  %79 = udiv i32 %.089.i69, 10
  %80 = icmp samesign ugt i32 %.0.in10.i68, 1
  br i1 %80, label %71, label %_ZN17double_conversionL12FillDigits32EjNS_6VectorIcEEPi.exit90.sink.split, !llvm.loop !11

81:                                               ; preds = %52
  %.not27.i72 = icmp eq i64 %4, 0
  br i1 %.not27.i72, label %._crit_edge.i77, label %.lr.ph.i73

.lr.ph.i73:                                       ; preds = %81, %.lr.ph.i73
  %.029.i74 = phi i32 [ %83, %.lr.ph.i73 ], [ %5, %81 ]
  %.02228.i75 = phi i32 [ %90, %.lr.ph.i73 ], [ 0, %81 ]
  %82 = urem i32 %.029.i74, 10
  %83 = udiv i32 %.029.i74, 10
  %84 = trunc nuw nsw i32 %82 to i8
  %85 = or disjoint i8 %84, 48
  %86 = load i32, ptr %2, align 4, !tbaa !3
  %87 = add nsw i32 %86, %.02228.i75
  %88 = sext i32 %87 to i64
  %89 = getelementptr inbounds i8, ptr %1, i64 %88
  store i8 %85, ptr %89, align 1, !tbaa !7
  %90 = add nuw nsw i32 %.02228.i75, 1
  %.not.i76 = icmp samesign ult i32 %.029.i74, 10
  br i1 %.not.i76, label %._crit_edge.i77, label %.lr.ph.i73, !llvm.loop !8

._crit_edge.i77:                                  ; preds = %.lr.ph.i73, %81
  %.022.lcssa.i78 = phi i32 [ 0, %81 ], [ %90, %.lr.ph.i73 ]
  %91 = load i32, ptr %2, align 4, !tbaa !3
  %92 = add nsw i32 %91, %.022.lcssa.i78
  %.02030.i79 = add nsw i32 %92, -1
  %93 = icmp slt i32 %91, %.02030.i79
  br i1 %93, label %.lr.ph34.preheader.i81, label %_ZN17double_conversionL12FillDigits32EjNS_6VectorIcEEPi.exit90

.lr.ph34.preheader.i81:                           ; preds = %._crit_edge.i77
  %94 = sext i32 %.02030.i79 to i64
  %95 = sext i32 %91 to i64
  br label %.lr.ph34.i82

.lr.ph34.i82:                                     ; preds = %.lr.ph34.i82, %.lr.ph34.preheader.i81
  %indvars.iv36.i83 = phi i64 [ %95, %.lr.ph34.preheader.i81 ], [ %indvars.iv.next37.i85, %.lr.ph34.i82 ]
  %indvars.iv.i84 = phi i64 [ %94, %.lr.ph34.preheader.i81 ], [ %indvars.iv.next.i86, %.lr.ph34.i82 ]
  %96 = getelementptr inbounds i8, ptr %1, i64 %indvars.iv36.i83
  %97 = load i8, ptr %96, align 1, !tbaa !7
  %98 = getelementptr inbounds i8, ptr %1, i64 %indvars.iv.i84
  %99 = load i8, ptr %98, align 1, !tbaa !7
  store i8 %99, ptr %96, align 1, !tbaa !7
  store i8 %97, ptr %98, align 1, !tbaa !7
  %indvars.iv.next37.i85 = add nsw i64 %indvars.iv36.i83, 1
  %indvars.iv.next.i86 = add nsw i64 %indvars.iv.i84, -1
  %100 = icmp slt i64 %indvars.iv.next37.i85, %indvars.iv.next.i86
  br i1 %100, label %.lr.ph34.i82, label %_ZN17double_conversionL12FillDigits32EjNS_6VectorIcEEPi.exit90.sink.split, !llvm.loop !10

_ZN17double_conversionL12FillDigits32EjNS_6VectorIcEEPi.exit90.sink.split: ; preds = %42, %71, %.lr.ph34.i82
  %.022.lcssa.i78.sink = phi i32 [ %.022.lcssa.i78, %.lr.ph34.i82 ], [ 7, %71 ], [ 7, %42 ]
  %.pre.i88 = load i32, ptr %2, align 4, !tbaa !3
  %.pre41.i89 = add nsw i32 %.pre.i88, %.022.lcssa.i78.sink
  br label %_ZN17double_conversionL12FillDigits32EjNS_6VectorIcEEPi.exit90

_ZN17double_conversionL12FillDigits32EjNS_6VectorIcEEPi.exit90: ; preds = %_ZN17double_conversionL12FillDigits32EjNS_6VectorIcEEPi.exit90.sink.split, %._crit_edge.i77
  %.sink = phi i32 [ %92, %._crit_edge.i77 ], [ %.pre41.i89, %_ZN17double_conversionL12FillDigits32EjNS_6VectorIcEEPi.exit90.sink.split ]
  store i32 %.sink, ptr %2, align 4, !tbaa !3
  ret void
}